target datalayout = "e-m:e-p270:32:32-p271:32:32-p272:64:64-i64:64-i128:128-f80:128-n8:16:32:64-S128"
target triple = "x86_64-pc-linux-gnu"

%struct.mbedtls_mpi = type { ptr, i16, i16 }

; Function Attrs: nounwind uwtable
define hidden i32 @mbedtls_mpi_grow(ptr noundef %0, i64 noundef %1) #0 {
  %3 = alloca i32, align 4
  %4 = alloca ptr, align 8
  %5 = alloca i64, align 8
  %6 = alloca ptr, align 8
  %7 = alloca i32, align 4
  store ptr %0, ptr %4, align 8, !tbaa !3
  store i64 %1, ptr %5, align 8, !tbaa !15
  call void @llvm.lifetime.start.p0(i64 8, ptr %6) #9
  %8 = load i64, ptr %5, align 8, !tbaa !15
  %9 = icmp ugt i64 %8, 10000
  br i1 %9, label %10, label %11

10:                                               ; preds = %2
  store i32 -16, ptr %3, align 4
  store i32 1, ptr %7, align 4
  br label %55

11:                                               ; preds = %2
  %12 = load ptr, ptr %4, align 8, !tbaa !3
  %13 = getelementptr inbounds nuw %struct.mbedtls_mpi, ptr %12, i32 0, i32 2
  %14 = load i16, ptr %13, align 2, !tbaa !10
  %15 = zext i16 %14 to i64
  %16 = load i64, ptr %5, align 8, !tbaa !15
  %17 = icmp ult i64 %15, %16
  br i1 %17, label %18, label %54

18:                                               ; preds = %11
  %19 = load i64, ptr %5, align 8, !tbaa !15
  %20 = call noalias ptr @calloc(i64 noundef %19, i64 noundef 8) #10
  store ptr %20, ptr %6, align 8, !tbaa !25
  %21 = icmp eq ptr %20, null
  br i1 %21, label %22, label %23

22:                                               ; preds = %18
  store i32 -16, ptr %3, align 4
  store i32 1, ptr %7, align 4
  br label %55

23:                                               ; preds = %18
  %24 = load ptr, ptr %4, align 8, !tbaa !3
  %25 = getelementptr inbounds nuw %struct.mbedtls_mpi, ptr %24, i32 0, i32 0
  %26 = load ptr, ptr %25, align 8, !tbaa !17
  %27 = icmp ne ptr %26, null
  br i1 %27, label %28, label %46

28:                                               ; preds = %23
  %29 = load ptr, ptr %6, align 8, !tbaa !25
  %30 = load ptr, ptr %4, align 8, !tbaa !3
  %31 = getelementptr inbounds nuw %struct.mbedtls_mpi, ptr %30, i32 0, i32 0
  %32 = load ptr, ptr %31, align 8, !tbaa !17
  %33 = load ptr, ptr %4, align 8, !tbaa !3
  %34 = getelementptr inbounds nuw %struct.mbedtls_mpi, ptr %33, i32 0, i32 2
  %35 = load i16, ptr %34, align 2, !tbaa !10
  %36 = zext i16 %35 to i64
  %37 = mul i64 %36, 8
  call void @llvm.memcpy.p0.p0.i64(ptr align 8 %29, ptr align 8 %32, i64 %37, i1 false)
  %38 = load ptr, ptr %4, align 8, !tbaa !3
  %39 = getelementptr inbounds nuw %struct.mbedtls_mpi, ptr %38, i32 0, i32 0
  %40 = load ptr, ptr %39, align 8, !tbaa !17
  %41 = load ptr, ptr %4, align 8, !tbaa !3
  %42 = getelementptr inbounds nuw %struct.mbedtls_mpi, ptr %41, i32 0, i32 2
  %43 = load i16, ptr %42, align 2, !tbaa !10
  %44 = zext i16 %43 to i64
  %45 = mul i64 8, %44
  call void @mbedtls_zeroize_and_free(ptr noundef %40, i64 noundef %45)
  br label %46

46:                                               ; preds = %28, %23
  %47 = load i64, ptr %5, align 8, !tbaa !15
  %48 = trunc i64 %47 to i16
  %49 = load ptr, ptr %4, align 8, !tbaa !3
  %50 = getelementptr inbounds nuw %struct.mbedtls_mpi, ptr %49, i32 0, i32 2
  store i16 %48, ptr %50, align 2, !tbaa !10
  %51 = load ptr, ptr %6, align 8, !tbaa !25
  %52 = load ptr, ptr %4, align 8, !tbaa !3
  %53 = getelementptr inbounds nuw %struct.mbedtls_mpi, ptr %52, i32 0, i32 0
  store ptr %51, ptr %53, align 8, !tbaa !17
  br label %54

54:                                               ; preds = %46, %11
  store i32 0, ptr %3, align 4
  store i32 1, ptr %7, align 4
  br label %55

55:                                               ; preds = %54, %22, %10
  call void @llvm.lifetime.end.p0(i64 8, ptr %6) #9
  %56 = load i32, ptr %3, align 4
  ret i32 %56
}

; Function Attrs: nounwind uwtable
define hidden i32 @mbedtls_mpi_sub_abs(ptr noundef %0, ptr noundef %1, ptr noundef %2) #0 {
  %4 = alloca ptr, align 8
  %5 = alloca ptr, align 8
  %6 = alloca ptr, align 8
  %7 = alloca i32, align 4
  %8 = alloca i64, align 8
  %9 = alloca i64, align 8
  store ptr %0, ptr %4, align 8, !tbaa !3
  store ptr %1, ptr %5, align 8, !tbaa !3
  store ptr %2, ptr %6, align 8, !tbaa !3
  call void @llvm.lifetime.start.p0(i64 4, ptr %7) #9
  store i32 -110, ptr %7, align 4, !tbaa !19
  call void @llvm.lifetime.start.p0(i64 8, ptr %8) #9
  call void @llvm.lifetime.start.p0(i64 8, ptr %9) #9
  %10 = load ptr, ptr %6, align 8, !tbaa !3
  %11 = getelementptr inbounds nuw %struct.mbedtls_mpi, ptr %10, i32 0, i32 2
  %12 = load i16, ptr %11, align 2, !tbaa !10
  %13 = zext i16 %12 to i64
  store i64 %13, ptr %8, align 8, !tbaa !15
  br label %14

14:                                               ; preds = %28, %3
  %15 = load i64, ptr %8, align 8, !tbaa !15
  %16 = icmp ugt i64 %15, 0
  br i1 %16, label %17, label %31

17:                                               ; preds = %14
  %18 = load ptr, ptr %6, align 8, !tbaa !3
  %19 = getelementptr inbounds nuw %struct.mbedtls_mpi, ptr %18, i32 0, i32 0
  %20 = load ptr, ptr %19, align 8, !tbaa !17
  %21 = load i64, ptr %8, align 8, !tbaa !15
  %22 = sub i64 %21, 1
  %23 = getelementptr inbounds nuw i64, ptr %20, i64 %22
  %24 = load i64, ptr %23, align 8, !tbaa !15
  %25 = icmp ne i64 %24, 0
  br i1 %25, label %26, label %27

26:                                               ; preds = %17
  br label %31

27:                                               ; preds = %17
  br label %28

28:                                               ; preds = %27
  %29 = load i64, ptr %8, align 8, !tbaa !15
  %30 = add i64 %29, -1
  store i64 %30, ptr %8, align 8, !tbaa !15
  br label %14, !llvm.loop !52

31:                                               ; preds = %26, %14
  %32 = load i64, ptr %8, align 8, !tbaa !15
  %33 = load ptr, ptr %5, align 8, !tbaa !3
  %34 = getelementptr inbounds nuw %struct.mbedtls_mpi, ptr %33, i32 0, i32 2
  %35 = load i16, ptr %34, align 2, !tbaa !10
  %36 = zext i16 %35 to i64
  %37 = icmp ugt i64 %32, %36
  br i1 %37, label %38, label %39

38:                                               ; preds = %31
  store i32 -10, ptr %7, align 4, !tbaa !19
  br label %151

39:                                               ; preds = %31
  br label %40

40:                                               ; preds = %39
  %41 = load ptr, ptr %4, align 8, !tbaa !3
  %42 = load ptr, ptr %5, align 8, !tbaa !3
  %43 = getelementptr inbounds nuw %struct.mbedtls_mpi, ptr %42, i32 0, i32 2
  %44 = load i16, ptr %43, align 2, !tbaa !10
  %45 = zext i16 %44 to i64
  %46 = call i32 @mbedtls_mpi_grow(ptr noundef %41, i64 noundef %45)
  store i32 %46, ptr %7, align 4, !tbaa !19
  %47 = icmp ne i32 %46, 0
  br i1 %47, label %48, label %49

48:                                               ; preds = %40
  br label %151

49:                                               ; preds = %40
  br label %50

50:                                               ; preds = %49
  br label %51

51:                                               ; preds = %50
  %52 = load ptr, ptr %5, align 8, !tbaa !3
  %53 = getelementptr inbounds nuw %struct.mbedtls_mpi, ptr %52, i32 0, i32 2
  %54 = load i16, ptr %53, align 2, !tbaa !10
  %55 = zext i16 %54 to i64
  %56 = load i64, ptr %8, align 8, !tbaa !15
  %57 = icmp ugt i64 %55, %56
  br i1 %57, label %58, label %80

58:                                               ; preds = %51
  %59 = load ptr, ptr %5, align 8, !tbaa !3
  %60 = load ptr, ptr %4, align 8, !tbaa !3
  %61 = icmp ne ptr %59, %60
  br i1 %61, label %62, label %80

62:                                               ; preds = %58
  %63 = load ptr, ptr %4, align 8, !tbaa !3
  %64 = getelementptr inbounds nuw %struct.mbedtls_mpi, ptr %63, i32 0, i32 0
  %65 = load ptr, ptr %64, align 8, !tbaa !17
  %66 = load i64, ptr %8, align 8, !tbaa !15
  %67 = getelementptr inbounds nuw i64, ptr %65, i64 %66
  %68 = load ptr, ptr %5, align 8, !tbaa !3
  %69 = getelementptr inbounds nuw %struct.mbedtls_mpi, ptr %68, i32 0, i32 0
  %70 = load ptr, ptr %69, align 8, !tbaa !17
  %71 = load i64, ptr %8, align 8, !tbaa !15
  %72 = getelementptr inbounds nuw i64, ptr %70, i64 %71
  %73 = load ptr, ptr %5, align 8, !tbaa !3
  %74 = getelementptr inbounds nuw %struct.mbedtls_mpi, ptr %73, i32 0, i32 2
  %75 = load i16, ptr %74, align 2, !tbaa !10
  %76 = zext i16 %75 to i64
  %77 = load i64, ptr %8, align 8, !tbaa !15
  %78 = sub i64 %76, %77
  %79 = mul i64 %78, 8
  call void @llvm.memcpy.p0.p0.i64(ptr align 8 %67, ptr align 8 %72, i64 %79, i1 false)
  br label %80

80:                                               ; preds = %62, %58, %51
  %81 = load ptr, ptr %4, align 8, !tbaa !3
  %82 = getelementptr inbounds nuw %struct.mbedtls_mpi, ptr %81, i32 0, i32 2
  %83 = load i16, ptr %82, align 2, !tbaa !10
  %84 = zext i16 %83 to i32
  %85 = load ptr, ptr %5, align 8, !tbaa !3
  %86 = getelementptr inbounds nuw %struct.mbedtls_mpi, ptr %85, i32 0, i32 2
  %87 = load i16, ptr %86, align 2, !tbaa !10
  %88 = zext i16 %87 to i32
  %89 = icmp sgt i32 %84, %88
  br i1 %89, label %90, label %111

90:                                               ; preds = %80
  %91 = load ptr, ptr %4, align 8, !tbaa !3
  %92 = getelementptr inbounds nuw %struct.mbedtls_mpi, ptr %91, i32 0, i32 0
  %93 = load ptr, ptr %92, align 8, !tbaa !17
  %94 = load ptr, ptr %5, align 8, !tbaa !3
  %95 = getelementptr inbounds nuw %struct.mbedtls_mpi, ptr %94, i32 0, i32 2
  %96 = load i16, ptr %95, align 2, !tbaa !10
  %97 = zext i16 %96 to i32
  %98 = sext i32 %97 to i64
  %99 = getelementptr inbounds i64, ptr %93, i64 %98
  %100 = load ptr, ptr %4, align 8, !tbaa !3
  %101 = getelementptr inbounds nuw %struct.mbedtls_mpi, ptr %100, i32 0, i32 2
  %102 = load i16, ptr %101, align 2, !tbaa !10
  %103 = zext i16 %102 to i32
  %104 = load ptr, ptr %5, align 8, !tbaa !3
  %105 = getelementptr inbounds nuw %struct.mbedtls_mpi, ptr %104, i32 0, i32 2
  %106 = load i16, ptr %105, align 2, !tbaa !10
  %107 = zext i16 %106 to i32
  %108 = sub nsw i32 %103, %107
  %109 = sext i32 %108 to i64
  %110 = mul i64 %109, 8
  call void @llvm.memset.p0.i64(ptr align 8 %99, i8 0, i64 %110, i1 false)
  br label %111

111:                                              ; preds = %90, %80
  %112 = load ptr, ptr %4, align 8, !tbaa !3
  %113 = getelementptr inbounds nuw %struct.mbedtls_mpi, ptr %112, i32 0, i32 0
  %114 = load ptr, ptr %113, align 8, !tbaa !17
  %115 = load ptr, ptr %5, align 8, !tbaa !3
  %116 = getelementptr inbounds nuw %struct.mbedtls_mpi, ptr %115, i32 0, i32 0
  %117 = load ptr, ptr %116, align 8, !tbaa !17
  %118 = load ptr, ptr %6, align 8, !tbaa !3
  %119 = getelementptr inbounds nuw %struct.mbedtls_mpi, ptr %118, i32 0, i32 0
  %120 = load ptr, ptr %119, align 8, !tbaa !17
  %121 = load i64, ptr %8, align 8, !tbaa !15
  %122 = call i64 @mbedtls_mpi_core_sub(ptr noundef %114, ptr noundef %117, ptr noundef %120, i64 noundef %121)
  store i64 %122, ptr %9, align 8, !tbaa !15
  %123 = load i64, ptr %9, align 8, !tbaa !15
  %124 = icmp ne i64 %123, 0
  br i1 %124, label %125, label %148

125:                                              ; preds = %111
  %126 = load ptr, ptr %4, align 8, !tbaa !3
  %127 = getelementptr inbounds nuw %struct.mbedtls_mpi, ptr %126, i32 0, i32 0
  %128 = load ptr, ptr %127, align 8, !tbaa !17
  %129 = load i64, ptr %8, align 8, !tbaa !15
  %130 = getelementptr inbounds nuw i64, ptr %128, i64 %129
  %131 = load ptr, ptr %4, align 8, !tbaa !3
  %132 = getelementptr inbounds nuw %struct.mbedtls_mpi, ptr %131, i32 0, i32 0
  %133 = load ptr, ptr %132, align 8, !tbaa !17
  %134 = load i64, ptr %8, align 8, !tbaa !15
  %135 = getelementptr inbounds nuw i64, ptr %133, i64 %134
  %136 = load i64, ptr %9, align 8, !tbaa !15
  %137 = load ptr, ptr %4, align 8, !tbaa !3
  %138 = getelementptr inbounds nuw %struct.mbedtls_mpi, ptr %137, i32 0, i32 2
  %139 = load i16, ptr %138, align 2, !tbaa !10
  %140 = zext i16 %139 to i64
  %141 = load i64, ptr %8, align 8, !tbaa !15
  %142 = sub i64 %140, %141
  %143 = call i64 @mbedtls_mpi_core_sub_int(ptr noundef %130, ptr noundef %135, i64 noundef %136, i64 noundef %142)
  store i64 %143, ptr %9, align 8, !tbaa !15
  %144 = load i64, ptr %9, align 8, !tbaa !15
  %145 = icmp ne i64 %144, 0
  br i1 %145, label %146, label %147

146:                                              ; preds = %125
  store i32 -10, ptr %7, align 4, !tbaa !19
  br label %151

147:                                              ; preds = %125
  br label %148

148:                                              ; preds = %147, %111
  %149 = load ptr, ptr %4, align 8, !tbaa !3
  %150 = getelementptr inbounds nuw %struct.mbedtls_mpi, ptr %149, i32 0, i32 1
  store i16 1, ptr %150, align 8, !tbaa !14
  br label %151

151:                                              ; preds = %148, %146, %48, %38
  %152 = load i32, ptr %7, align 4, !tbaa !19
  call void @llvm.lifetime.end.p0(i64 8, ptr %9) #9
  call void @llvm.lifetime.end.p0(i64 8, ptr %8) #9
  call void @llvm.lifetime.end.p0(i64 4, ptr %7) #9
  ret i32 %152
}