; Function Attrs: nounwind uwtable
define hidden range(i32 -16, 1) i32 @mbedtls_mpi_sub_abs(ptr noundef %0, ptr noundef readonly %1, ptr noundef readonly captures(none) %2) local_unnamed_addr #0 {
  %4 = getelementptr inbounds nuw i8, ptr %2, i64 10
  %5 = load i16, ptr %4, align 2, !tbaa !3
  %.not55 = icmp eq i16 %5, 0
  br i1 %.not55, label %._crit_edge, label %.lr.ph

.lr.ph:                                           ; preds = %3
  %6 = zext i16 %5 to i64
  %7 = load ptr, ptr %2, align 8, !tbaa !12
  %invariant.gep = getelementptr i8, ptr %7, i64 -8
  br label %8

8:                                                ; preds = %.lr.ph, %10
  %.056 = phi i64 [ %6, %.lr.ph ], [ %11, %10 ]
  %gep = getelementptr i64, ptr %invariant.gep, i64 %.056
  %9 = load i64, ptr %gep, align 8, !tbaa !17
  %.not48 = icmp eq i64 %9, 0
  br i1 %.not48, label %10, label %._crit_edge

10:                                               ; preds = %8
  %11 = add nsw i64 %.056, -1
  %.not = icmp eq i64 %11, 0
  br i1 %.not, label %._crit_edge.thread, label %8, !llvm.loop !41

._crit_edge.thread:                               ; preds = %10
  %12 = getelementptr inbounds nuw i8, ptr %1, i64 10
  %13 = load i16, ptr %12, align 2, !tbaa !3
  %14 = zext i16 %13 to i64
  br label %19

._crit_edge:                                      ; preds = %8, %3
  %.0.lcssa = phi i64 [ 0, %3 ], [ %.056, %8 ]
  %15 = getelementptr inbounds nuw i8, ptr %1, i64 10
  %16 = load i16, ptr %15, align 2, !tbaa !3
  %17 = zext i16 %16 to i64
  %18 = icmp ugt i64 %.0.lcssa, %17
  br i1 %18, label %mbedtls_mpi_grow.exit, label %19

19:                                               ; preds = %._crit_edge.thread, %._crit_edge
  %20 = phi i64 [ %14, %._crit_edge.thread ], [ %17, %._crit_edge ]
  %21 = phi i16 [ %13, %._crit_edge.thread ], [ %16, %._crit_edge ]
  %22 = phi ptr [ %12, %._crit_edge.thread ], [ %15, %._crit_edge ]
  %.0.lcssa69 = phi i64 [ 0, %._crit_edge.thread ], [ %.0.lcssa, %._crit_edge ]
  %23 = icmp ugt i16 %21, 10000
  br i1 %23, label %mbedtls_mpi_grow.exit, label %24

24:                                               ; preds = %19
  %25 = getelementptr inbounds nuw i8, ptr %0, i64 10
  %26 = load i16, ptr %25, align 2, !tbaa !3
  %27 = zext i16 %26 to i64
  %28 = icmp ugt i16 %21, %26
  br i1 %28, label %29, label %._crit_edge65

._crit_edge65:                                    ; preds = %24
  %.pre62.pre63.pre = load ptr, ptr %0, align 8, !tbaa !12
  br label %37

29:                                               ; preds = %24
  %30 = tail call noalias ptr @calloc(i64 noundef %20, i64 noundef 8) #17
  %31 = icmp eq ptr %30, null
  br i1 %31, label %mbedtls_mpi_grow.exit, label %32

32:                                               ; preds = %29
  %33 = load ptr, ptr %0, align 8, !tbaa !12
  %.not.i = icmp eq ptr %33, null
  br i1 %.not.i, label %36, label %34

34:                                               ; preds = %32
  %35 = shl nuw nsw i64 %27, 3
  tail call void @llvm.memcpy.p0.p0.i64(ptr nonnull align 8 %30, ptr nonnull align 8 %33, i64 %35, i1 false)
  tail call void @mbedtls_zeroize_and_free(ptr noundef nonnull %33, i64 noundef %35) #16
  br label %36

36:                                               ; preds = %34, %32
  store i16 %21, ptr %25, align 2, !tbaa !3
  store ptr %30, ptr %0, align 8, !tbaa !12
  %.pre = load i16, ptr %22, align 2, !tbaa !3
  %.pre67 = zext i16 %.pre to i64
  br label %37

37:                                               ; preds = %._crit_edge65, %36
  %.pre-phi = phi i64 [ %20, %._crit_edge65 ], [ %.pre67, %36 ]
  %.pre62.pre63 = phi ptr [ %.pre62.pre63.pre, %._crit_edge65 ], [ %30, %36 ]
  %38 = phi i16 [ %26, %._crit_edge65 ], [ %21, %36 ]
  %39 = phi i16 [ %21, %._crit_edge65 ], [ %.pre, %36 ]
  %40 = icmp samesign uge i64 %.0.lcssa69, %.pre-phi
  %.not50 = icmp eq ptr %1, %0
  %or.cond = or i1 %.not50, %40
  br i1 %or.cond, label %47, label %41

41:                                               ; preds = %37
  %42 = getelementptr inbounds nuw i64, ptr %.pre62.pre63, i64 %.0.lcssa69
  %43 = load ptr, ptr %1, align 8, !tbaa !12
  %44 = getelementptr inbounds nuw i64, ptr %43, i64 %.0.lcssa69
  %45 = sub nuw nsw i64 %.pre-phi, %.0.lcssa69
  %46 = shl nuw nsw i64 %45, 3
  tail call void @llvm.memcpy.p0.p0.i64(ptr align 8 %42, ptr align 8 %44, i64 %46, i1 false)
  %.pre59 = load i16, ptr %25, align 2, !tbaa !3
  %.pre60 = load i16, ptr %22, align 2, !tbaa !3
  %.pre62.pre = load ptr, ptr %0, align 8, !tbaa !12
  br label %47

47:                                               ; preds = %41, %37
  %.pre62 = phi ptr [ %.pre62.pre, %41 ], [ %.pre62.pre63, %37 ]
  %48 = phi i16 [ %.pre60, %41 ], [ %39, %37 ]
  %49 = phi i16 [ %.pre59, %41 ], [ %38, %37 ]
  %50 = icmp ugt i16 %49, %48
  br i1 %50, label %51, label %56

51:                                               ; preds = %47
  %52 = zext i16 %48 to i64
  %53 = getelementptr inbounds nuw i64, ptr %.pre62, i64 %52
  %narrow = sub nuw i16 %49, %48
  %54 = zext i16 %narrow to i64
  %55 = shl nuw nsw i64 %54, 3
  tail call void @llvm.memset.p0.i64(ptr align 8 %53, i8 0, i64 %55, i1 false)
  %.pre61 = load ptr, ptr %0, align 8, !tbaa !12
  br label %56

56:                                               ; preds = %51, %47
  %57 = phi ptr [ %.pre61, %51 ], [ %.pre62, %47 ]
  %58 = load ptr, ptr %1, align 8, !tbaa !12
  %59 = load ptr, ptr %2, align 8, !tbaa !12
  %60 = tail call i64 @mbedtls_mpi_core_sub(ptr noundef %57, ptr noundef %58, ptr noundef %59, i64 noundef %.0.lcssa69) #16
  %.not51 = icmp eq i64 %60, 0
  br i1 %.not51, label %68, label %61

61:                                               ; preds = %56
  %62 = load ptr, ptr %0, align 8, !tbaa !12
  %63 = getelementptr inbounds nuw i64, ptr %62, i64 %.0.lcssa69
  %64 = load i16, ptr %25, align 2, !tbaa !3
  %65 = zext i16 %64 to i64
  %66 = sub nsw i64 %65, %.0.lcssa69
  %67 = tail call i64 @mbedtls_mpi_core_sub_int(ptr noundef %63, ptr noundef %63, i64 noundef %60, i64 noundef %66) #16
  %.not52 = icmp eq i64 %67, 0
  br i1 %.not52, label %68, label %mbedtls_mpi_grow.exit

68:                                               ; preds = %61, %56
  %69 = getelementptr inbounds nuw i8, ptr %0, i64 8
  store i16 1, ptr %69, align 8, !tbaa !10
  br label %mbedtls_mpi_grow.exit

mbedtls_mpi_grow.exit:                            ; preds = %29, %19, %61, %._crit_edge, %68
  %.039 = phi i32 [ 0, %68 ], [ -10, %._crit_edge ], [ -10, %61 ], [ -16, %19 ], [ -16, %29 ]
  ret i32 %.039
}